target datalayout = "e-m:e-p270:32:32-p271:32:32-p272:64:64-i64:64-i128:128-f80:128-n8:16:32:64-S128"
target triple = "x86_64-pc-linux-gnu"

%struct.SDL_HIDAPI_RumbleContext = type { %struct.SDL_AtomicInt, %struct.SDL_AtomicInt, ptr, ptr, ptr, ptr }
%struct.SDL_AtomicInt = type { i32 }
%struct.SDL_HIDAPI_RumbleRequest = type { ptr, [128 x i8], i32, ptr, ptr, ptr }

@rumble_context = internal global %struct.SDL_HIDAPI_RumbleContext zeroinitializer, align 8
@SDL_HIDAPI_rumble_lock = internal global ptr null, align 8
@.str.1 = private unnamed_addr constant [39 x i8] c"Tried to send rumble with invalid size\00", align 1

; Function Attrs: nounwind uwtable
define hidden i32 @SDL_HIDAPI_SendRumbleAndUnlock(ptr noundef %0, ptr noundef %1, i32 noundef %2) #0 {
  %4 = alloca ptr, align 8
  %5 = alloca ptr, align 8
  %6 = alloca i32, align 4
  store ptr %0, ptr %4, align 8
  store ptr %1, ptr %5, align 8
  store i32 %2, ptr %6, align 4
  %7 = load ptr, ptr %4, align 8
  %8 = load ptr, ptr %5, align 8
  %9 = load i32, ptr %6, align 4
  %10 = call i32 @SDL_HIDAPI_SendRumbleWithCallbackAndUnlock(ptr noundef %7, ptr noundef %8, i32 noundef %9, ptr noundef null, ptr noundef null)
  ret i32 %10
}

; Function Attrs: nounwind uwtable
define hidden void @SDL_HIDAPI_UnlockRumble() #0 {
  %1 = load ptr, ptr @SDL_HIDAPI_rumble_lock, align 8
  call void @SDL_UnlockMutex_REAL(ptr noundef %1)
  ret void
}

; Function Attrs: nounwind uwtable
define hidden zeroext i1 @SDL_HIDAPI_GetPendingRumbleLocked(ptr noundef %0, ptr noundef %1, ptr noundef %2, ptr noundef %3) #0 {
  %5 = alloca i1, align 1
  %6 = alloca ptr, align 8
  %7 = alloca ptr, align 8
  %8 = alloca ptr, align 8
  %9 = alloca ptr, align 8
  %10 = alloca ptr, align 8
  %11 = alloca ptr, align 8
  %12 = alloca ptr, align 8
  %13 = alloca i32, align 4
  store ptr %0, ptr %6, align 8
  store ptr %1, ptr %7, align 8
  store ptr %2, ptr %8, align 8
  store ptr %3, ptr %9, align 8
  call void @llvm.lifetime.start.p0(i64 8, ptr %10) #5
  store ptr @rumble_context, ptr %10, align 8
  call void @llvm.lifetime.start.p0(i64 8, ptr %11) #5
  call void @llvm.lifetime.start.p0(i64 8, ptr %12) #5
  store ptr null, ptr %12, align 8
  %14 = load ptr, ptr %10, align 8
  %15 = getelementptr inbounds nuw %struct.SDL_HIDAPI_RumbleContext, ptr %14, i32 0, i32 5
  %16 = load ptr, ptr %15, align 8
  store ptr %16, ptr %11, align 8
  br label %17

17:                                               ; preds = %29, %4
  %18 = load ptr, ptr %11, align 8
  %19 = icmp ne ptr %18, null
  br i1 %19, label %20, label %33

20:                                               ; preds = %17
  %21 = load ptr, ptr %11, align 8
  %22 = getelementptr inbounds nuw %struct.SDL_HIDAPI_RumbleRequest, ptr %21, i32 0, i32 0
  %23 = load ptr, ptr %22, align 8
  %24 = load ptr, ptr %6, align 8
  %25 = icmp eq ptr %23, %24
  br i1 %25, label %26, label %28

26:                                               ; preds = %20
  %27 = load ptr, ptr %11, align 8
  store ptr %27, ptr %12, align 8
  br label %28

28:                                               ; preds = %26, %20
  br label %29

29:                                               ; preds = %28
  %30 = load ptr, ptr %11, align 8
  %31 = getelementptr inbounds nuw %struct.SDL_HIDAPI_RumbleRequest, ptr %30, i32 0, i32 5
  %32 = load ptr, ptr %31, align 8
  store ptr %32, ptr %11, align 8
  br label %17, !llvm.loop !3

33:                                               ; preds = %17
  %34 = load ptr, ptr %12, align 8
  %35 = icmp ne ptr %34, null
  br i1 %35, label %36, label %45

36:                                               ; preds = %33
  %37 = load ptr, ptr %12, align 8
  %38 = getelementptr inbounds nuw %struct.SDL_HIDAPI_RumbleRequest, ptr %37, i32 0, i32 1
  %39 = getelementptr inbounds [128 x i8], ptr %38, i64 0, i64 0
  %40 = load ptr, ptr %7, align 8
  store ptr %39, ptr %40, align 8
  %41 = load ptr, ptr %12, align 8
  %42 = getelementptr inbounds nuw %struct.SDL_HIDAPI_RumbleRequest, ptr %41, i32 0, i32 2
  %43 = load ptr, ptr %8, align 8
  store ptr %42, ptr %43, align 8
  %44 = load ptr, ptr %9, align 8
  store i32 128, ptr %44, align 4
  store i1 true, ptr %5, align 1
  store i32 1, ptr %13, align 4
  br label %46

45:                                               ; preds = %33
  store i1 false, ptr %5, align 1
  store i32 1, ptr %13, align 4
  br label %46

46:                                               ; preds = %45, %36
  call void @llvm.lifetime.end.p0(i64 8, ptr %12) #5
  call void @llvm.lifetime.end.p0(i64 8, ptr %11) #5
  call void @llvm.lifetime.end.p0(i64 8, ptr %10) #5
  %47 = load i1, ptr %5, align 1
  ret i1 %47
}

; Function Attrs: nounwind uwtable
define hidden i32 @SDL_HIDAPI_SendRumble(ptr noundef %0, ptr noundef %1, i32 noundef %2) #0 {
  %4 = alloca i32, align 4
  %5 = alloca ptr, align 8
  %6 = alloca ptr, align 8
  %7 = alloca i32, align 4
  %8 = alloca ptr, align 8
  %9 = alloca ptr, align 8
  %10 = alloca i32, align 4
  %11 = alloca i32, align 4
  store ptr %0, ptr %5, align 8
  store ptr %1, ptr %6, align 8
  store i32 %2, ptr %7, align 4
  call void @llvm.lifetime.start.p0(i64 8, ptr %8) #5
  call void @llvm.lifetime.start.p0(i64 8, ptr %9) #5
  call void @llvm.lifetime.start.p0(i64 4, ptr %10) #5
  %12 = load i32, ptr %7, align 4
  %13 = icmp sle i32 %12, 0
  br i1 %13, label %14, label %16

14:                                               ; preds = %3
  %15 = call zeroext i1 (ptr, ...) @SDL_SetError_REAL(ptr noundef @.str.1)
  store i32 -1, ptr %4, align 4
  store i32 1, ptr %11, align 4
  br label %48

16:                                               ; preds = %3
  %17 = call zeroext i1 @SDL_HIDAPI_LockRumble()
  br i1 %17, label %19, label %18

18:                                               ; preds = %16
  store i32 -1, ptr %4, align 4
  store i32 1, ptr %11, align 4
  br label %48

19:                                               ; preds = %16
  %20 = load ptr, ptr %5, align 8
  %21 = call zeroext i1 @SDL_HIDAPI_GetPendingRumbleLocked(ptr noundef %20, ptr noundef %8, ptr noundef %9, ptr noundef %10)
  br i1 %21, label %22, label %43

22:                                               ; preds = %19
  %23 = load i32, ptr %7, align 4
  %24 = load ptr, ptr %9, align 8
  %25 = load i32, ptr %24, align 4
  %26 = icmp eq i32 %23, %25
  br i1 %26, label %27, label %43

27:                                               ; preds = %22
  %28 = load ptr, ptr %6, align 8
  %29 = getelementptr inbounds i8, ptr %28, i64 0
  %30 = load i8, ptr %29, align 1
  %31 = zext i8 %30 to i32
  %32 = load ptr, ptr %8, align 8
  %33 = getelementptr inbounds i8, ptr %32, i64 0
  %34 = load i8, ptr %33, align 1
  %35 = zext i8 %34 to i32
  %36 = icmp eq i32 %31, %35
  br i1 %36, label %37, label %43

37:                                               ; preds = %27
  %38 = load ptr, ptr %8, align 8
  %39 = load ptr, ptr %6, align 8
  %40 = load i32, ptr %7, align 4
  %41 = sext i32 %40 to i64
  call void @llvm.memcpy.p0.p0.i64(ptr align 1 %38, ptr align 1 %39, i64 %41, i1 false)
  call void @SDL_HIDAPI_UnlockRumble()
  %42 = load i32, ptr %7, align 4
  store i32 %42, ptr %4, align 4
  store i32 1, ptr %11, align 4
  br label %48

43:                                               ; preds = %27, %22, %19
  %44 = load ptr, ptr %5, align 8
  %45 = load ptr, ptr %6, align 8
  %46 = load i32, ptr %7, align 4
  %47 = call i32 @SDL_HIDAPI_SendRumbleAndUnlock(ptr noundef %44, ptr noundef %45, i32 noundef %46)
  store i32 %47, ptr %4, align 4
  store i32 1, ptr %11, align 4
  br label %48

48:                                               ; preds = %43, %37, %18, %14
  call void @llvm.lifetime.end.p0(i64 4, ptr %10) #5
  call void @llvm.lifetime.end.p0(i64 8, ptr %9) #5
  call void @llvm.lifetime.end.p0(i64 8, ptr %8) #5
  %49 = load i32, ptr %4, align 4
  ret i32 %49
}