; Function Attrs: nounwind uwtable
define hidden range(i32 -1, -2147483648) i32 @SDL_HIDAPI_SendRumble(ptr noundef %0, ptr noundef readonly captures(none) %1, i32 noundef %2) local_unnamed_addr #0 {
  %4 = icmp slt i32 %2, 1
  br i1 %4, label %5, label %7

5:                                                ; preds = %3
  %6 = tail call zeroext i1 (ptr, ...) @SDL_SetError_REAL(ptr noundef nonnull @.str.1) #6
  br label %26

7:                                                ; preds = %3
  %8 = tail call zeroext i1 @SDL_HIDAPI_LockRumble()
  br i1 %8, label %9, label %26

9:                                                ; preds = %7
  %.01316.i = load ptr, ptr getelementptr inbounds nuw (i8, ptr @rumble_context, i64 32), align 8
  %.not17.i = icmp eq ptr %.01316.i, null
  br i1 %.not17.i, label %SDL_HIDAPI_GetPendingRumbleLocked.exit.thread, label %.lr.ph.i

.lr.ph.i:                                         ; preds = %9, %.lr.ph.i
  %.01319.i = phi ptr [ %.013.i, %.lr.ph.i ], [ %.01316.i, %9 ]
  %.018.i = phi ptr [ %spec.select.i, %.lr.ph.i ], [ null, %9 ]
  %10 = load ptr, ptr %.01319.i, align 8
  %11 = icmp eq ptr %10, %0
  %spec.select.i = select i1 %11, ptr %.01319.i, ptr %.018.i
  %12 = getelementptr inbounds nuw i8, ptr %.01319.i, i64 160
  %.013.i = load ptr, ptr %12, align 8
  %.not.i = icmp eq ptr %.013.i, null
  br i1 %.not.i, label %._crit_edge.i, label %.lr.ph.i, !llvm.loop !3

._crit_edge.i:                                    ; preds = %.lr.ph.i
  %.not15.not.i = icmp eq ptr %spec.select.i, null
  br i1 %.not15.not.i, label %SDL_HIDAPI_GetPendingRumbleLocked.exit.thread, label %13

13:                                               ; preds = %._crit_edge.i
  %14 = getelementptr inbounds nuw i8, ptr %spec.select.i, i64 8
  %15 = getelementptr inbounds nuw i8, ptr %spec.select.i, i64 136
  %16 = load i32, ptr %15, align 4
  %17 = icmp eq i32 %2, %16
  br i1 %17, label %18, label %SDL_HIDAPI_GetPendingRumbleLocked.exit.thread

18:                                               ; preds = %13
  %19 = load i8, ptr %1, align 1
  %20 = load i8, ptr %14, align 1
  %21 = icmp eq i8 %19, %20
  br i1 %21, label %22, label %SDL_HIDAPI_GetPendingRumbleLocked.exit.thread

22:                                               ; preds = %18
  %23 = zext nneg i32 %2 to i64
  tail call void @llvm.memcpy.p0.p0.i64(ptr nonnull align 1 %14, ptr nonnull align 1 %1, i64 %23, i1 false)
  %24 = load ptr, ptr @SDL_HIDAPI_rumble_lock, align 8
  tail call void @SDL_UnlockMutex_REAL(ptr noundef %24) #6
  br label %26

SDL_HIDAPI_GetPendingRumbleLocked.exit.thread:    ; preds = %9, %._crit_edge.i, %18, %13
  %25 = tail call range(i32 -1, 129) i32 @SDL_HIDAPI_SendRumbleWithCallbackAndUnlock(ptr noundef %0, ptr noundef readonly %1, i32 noundef %2, ptr noundef null, ptr noundef null)
  br label %26

26:                                               ; preds = %7, %SDL_HIDAPI_GetPendingRumbleLocked.exit.thread, %22, %5
  %.0 = phi i32 [ -1, %5 ], [ %2, %22 ], [ %25, %SDL_HIDAPI_GetPendingRumbleLocked.exit.thread ], [ -1, %7 ]
  ret i32 %.0
}